target datalayout = "e-m:e-p270:32:32-p271:32:32-p272:64:64-i64:64-i128:128-f80:128-n8:16:32:64-S128"
target triple = "x86_64-pc-linux-gnu"

; Function Attrs: nounwind uwtable
define ptr @SparseMatrix_general_new(i32 noundef %0, i32 noundef %1, i32 noundef %2, i32 noundef %3, i64 noundef %4, i32 noundef %5) #0 {
  %7 = alloca i32, align 4
  %8 = alloca i32, align 4
  %9 = alloca i32, align 4
  %10 = alloca i32, align 4
  %11 = alloca i64, align 8
  %12 = alloca i32, align 4
  %13 = alloca ptr, align 8
  store i32 %0, ptr %7, align 4, !tbaa !17
  store i32 %1, ptr %8, align 4, !tbaa !17
  store i32 %2, ptr %9, align 4, !tbaa !17
  store i32 %3, ptr %10, align 4, !tbaa !17
  store i64 %4, ptr %11, align 8, !tbaa !52
  store i32 %5, ptr %12, align 4, !tbaa !17
  call void @llvm.lifetime.start.p0(i64 8, ptr %13) #11
  %14 = load i32, ptr %7, align 4, !tbaa !17
  %15 = load i32, ptr %8, align 4, !tbaa !17
  %16 = load i32, ptr %10, align 4, !tbaa !17
  %17 = load i64, ptr %11, align 8, !tbaa !52
  %18 = load i32, ptr %12, align 4, !tbaa !17
  %19 = call ptr @SparseMatrix_init(i32 noundef %14, i32 noundef %15, i32 noundef %16, i64 noundef %17, i32 noundef %18)
  store ptr %19, ptr %13, align 8, !tbaa !3
  %20 = load i32, ptr %9, align 4, !tbaa !17
  %21 = icmp sgt i32 %20, 0
  br i1 %21, label %22, label %26

22:                                               ; preds = %6
  %23 = load ptr, ptr %13, align 8, !tbaa !3
  %24 = load i32, ptr %9, align 4, !tbaa !17
  %25 = call ptr @SparseMatrix_alloc(ptr noundef %23, i32 noundef %24)
  store ptr %25, ptr %13, align 8, !tbaa !3
  br label %26

26:                                               ; preds = %22, %6
  %27 = load ptr, ptr %13, align 8, !tbaa !3
  call void @llvm.lifetime.end.p0(i64 8, ptr %13) #11
  ret ptr %27
}