; Function Attrs: nofree nounwind uwtable
define noalias noundef ptr @SparseMatrix_general_new(i32 noundef %0, i32 noundef %1, i32 noundef %2, i32 noundef %3, i64 noundef %4, i32 noundef %5) local_unnamed_addr #4 {
  %7 = tail call fastcc ptr @SparseMatrix_init(i32 noundef %0, i32 noundef %1, i32 noundef %3, i64 noundef %4, i32 noundef %5)
  %8 = icmp sgt i32 %2, 0
  br i1 %8, label %9, label %11

9:                                                ; preds = %6
  %10 = tail call fastcc ptr @SparseMatrix_alloc(ptr noundef %7, i32 noundef %2)
  br label %11

11:                                               ; preds = %9, %6
  ret ptr %7
}